target datalayout = "e-m:e-p270:32:32-p271:32:32-p272:64:64-i64:64-i128:128-f80:128-n8:16:32:64-S128"
target triple = "x86_64-pc-linux-gnu"

%struct.expert_field = type { i32, i32 }
%struct._asn1_ctx_t = type { i32, i32, i8, ptr, ptr, ptr, ptr, ptr, %struct.anon, %struct.anon.2, %struct.anon.3, ptr }
%struct.anon = type { i32, i8, i8, i8, ptr, ptr, i32, i32, ptr, ptr, ptr, %union.anon }
%union.anon = type { %struct.anon.0 }
%struct.anon.0 = type { ptr }
%struct.anon.2 = type { ptr, ptr, ptr }
%struct.anon.3 = type { i32, i8, ptr, i32, i32, ptr, ptr, ptr, %union.anon.4 }
%union.anon.4 = type { %struct.anon.5 }
%struct.anon.5 = type { ptr }
%struct._packet_info = type { ptr, ptr, i32, i32, %struct.nstime_t, %struct.nstime_t, %struct.nstime_t, i8, ptr, ptr, ptr, ptr, %struct._address, %struct._address, %struct._address, %struct._address, %struct._address, %struct._address, i32, ptr, i8, [3 x i8], %struct.anon.7, i32, i32, i32, i32, ptr, i8, ptr, ptr, i16, i16, i32, i32, i16, i32, i32, ptr, ptr, ptr, i8, i8, i16, i16, i16, i32, i16, i16, ptr, ptr, ptr, ptr, ptr, i32, i32 }
%struct.nstime_t = type { i64, i32 }
%struct._address = type { i32, i32, ptr, ptr }
%struct.anon.7 = type { i8, [3 x i8] }

@ei_sv_mal_utctime = internal global %struct.expert_field zeroinitializer, align 4
@.str.110 = private unnamed_addr constant [62 x i8] c"BER Error: malformed UTCTime encoding, length must be 8 bytes\00", align 1
@.str.111 = private unnamed_addr constant [5 x i8] c"????\00", align 1

; Function Attrs: null_pointer_is_valid sspstrong uwtable
define internal i32 @dissect_sv_UtcTime(i1 noundef zeroext %0, ptr noundef %1, i32 noundef %2, ptr noundef %3, ptr noundef %4, i32 noundef %5) #0 {
  %7 = alloca i32, align 4
  %8 = alloca i8, align 1
  %9 = alloca ptr, align 8
  %10 = alloca i32, align 4
  %11 = alloca ptr, align 8
  %12 = alloca ptr, align 8
  %13 = alloca i32, align 4
  %14 = alloca i32, align 4
  %15 = alloca i32, align 4
  %16 = alloca i32, align 4
  %17 = alloca i32, align 4
  %18 = alloca %struct.nstime_t, align 8
  %19 = alloca ptr, align 8
  %20 = alloca i32, align 4
  %21 = zext i1 %0 to i8
  store i8 %21, ptr %8, align 1
  store ptr %1, ptr %9, align 8
  store i32 %2, ptr %10, align 4
  store ptr %3, ptr %11, align 8
  store ptr %4, ptr %12, align 8
  store i32 %5, ptr %13, align 4
  call void @llvm.lifetime.start.p0(i64 4, ptr %14) #3
  call void @llvm.lifetime.start.p0(i64 4, ptr %15) #3
  call void @llvm.lifetime.start.p0(i64 4, ptr %16) #3
  call void @llvm.lifetime.start.p0(i64 4, ptr %17) #3
  call void @llvm.lifetime.start.p0(i64 16, ptr %18) #3
  call void @llvm.lifetime.start.p0(i64 8, ptr %19) #3
  %22 = load ptr, ptr %9, align 8
  %23 = load i32, ptr %10, align 4
  %24 = call i32 @tvb_reported_length_remaining(ptr noundef %22, i32 noundef %23)
  store i32 %24, ptr %14, align 4
  %25 = load i32, ptr %14, align 4
  %26 = icmp ne i32 %25, 8
  br i1 %26, label %27, label %47

27:                                               ; preds = %6
  %28 = load ptr, ptr %12, align 8
  %29 = load ptr, ptr %11, align 8
  %30 = getelementptr inbounds nuw %struct._asn1_ctx_t, ptr %29, i32 0, i32 3
  %31 = load ptr, ptr %30, align 8
  %32 = load ptr, ptr %9, align 8
  %33 = load i32, ptr %10, align 4
  %34 = load i32, ptr %14, align 4
  %35 = call ptr (ptr, ptr, ptr, ptr, i32, i32, ptr, ...) @proto_tree_add_expert_format(ptr noundef %28, ptr noundef %31, ptr noundef @ei_sv_mal_utctime, ptr noundef %32, i32 noundef %33, i32 noundef %34, ptr noundef @.str.110)
  %36 = load i32, ptr %13, align 4
  %37 = icmp sgt i32 %36, 0
  br i1 %37, label %38, label %45

38:                                               ; preds = %27
  %39 = load ptr, ptr %12, align 8
  %40 = load i32, ptr %13, align 4
  %41 = load ptr, ptr %9, align 8
  %42 = load i32, ptr %10, align 4
  %43 = load i32, ptr %14, align 4
  %44 = call ptr @proto_tree_add_string(ptr noundef %39, i32 noundef %40, ptr noundef %41, i32 noundef %42, i32 noundef %43, ptr noundef @.str.111)
  br label %45

45:                                               ; preds = %38, %27
  %46 = load i32, ptr %10, align 4
  store i32 %46, ptr %7, align 4
  store i32 1, ptr %20, align 4
  br label %86

47:                                               ; preds = %6
  %48 = load ptr, ptr %9, align 8
  %49 = load i32, ptr %10, align 4
  %50 = call i32 @tvb_get_ntohl(ptr noundef %48, i32 noundef %49)
  store i32 %50, ptr %15, align 4
  %51 = load ptr, ptr %9, align 8
  %52 = load i32, ptr %10, align 4
  %53 = add i32 %52, 4
  %54 = call i32 @tvb_get_ntoh24(ptr noundef %51, i32 noundef %53)
  %55 = mul i32 %54, 256
  store i32 %55, ptr %16, align 4
  %56 = load i32, ptr %16, align 4
  %57 = zext i32 %56 to i64
  %58 = mul i64 %57, 1000000000
  %59 = udiv i64 %58, 4294967296
  %60 = trunc i64 %59 to i32
  store i32 %60, ptr %17, align 4
  %61 = load i32, ptr %15, align 4
  %62 = zext i32 %61 to i64
  %63 = getelementptr inbounds nuw %struct.nstime_t, ptr %18, i32 0, i32 0
  store i64 %62, ptr %63, align 8
  %64 = load i32, ptr %17, align 4
  %65 = getelementptr inbounds nuw %struct.nstime_t, ptr %18, i32 0, i32 1
  store i32 %64, ptr %65, align 8
  %66 = load ptr, ptr %11, align 8
  %67 = getelementptr inbounds nuw %struct._asn1_ctx_t, ptr %66, i32 0, i32 3
  %68 = load ptr, ptr %67, align 8
  %69 = getelementptr inbounds nuw %struct._packet_info, ptr %68, i32 0, i32 51
  %70 = load ptr, ptr %69, align 8
  %71 = call ptr @abs_time_to_str_ex(ptr noundef %70, ptr noundef %18, i32 noundef 19, i32 noundef 1)
  store ptr %71, ptr %19, align 8
  %72 = load i32, ptr %13, align 4
  %73 = icmp sgt i32 %72, 0
  br i1 %73, label %74, label %82

74:                                               ; preds = %47
  %75 = load ptr, ptr %12, align 8
  %76 = load i32, ptr %13, align 4
  %77 = load ptr, ptr %9, align 8
  %78 = load i32, ptr %10, align 4
  %79 = load i32, ptr %14, align 4
  %80 = load ptr, ptr %19, align 8
  %81 = call ptr @proto_tree_add_string(ptr noundef %75, i32 noundef %76, ptr noundef %77, i32 noundef %78, i32 noundef %79, ptr noundef %80)
  br label %82

82:                                               ; preds = %74, %47
  %83 = load i32, ptr %10, align 4
  %84 = add i32 %83, 8
  store i32 %84, ptr %10, align 4
  %85 = load i32, ptr %10, align 4
  store i32 %85, ptr %7, align 4
  store i32 1, ptr %20, align 4
  br label %86

86:                                               ; preds = %82, %45
  call void @llvm.lifetime.end.p0(i64 8, ptr %19) #3
  call void @llvm.lifetime.end.p0(i64 16, ptr %18) #3
  call void @llvm.lifetime.end.p0(i64 4, ptr %17) #3
  call void @llvm.lifetime.end.p0(i64 4, ptr %16) #3
  call void @llvm.lifetime.end.p0(i64 4, ptr %15) #3
  call void @llvm.lifetime.end.p0(i64 4, ptr %14) #3
  %87 = load i32, ptr %7, align 4
  ret i32 %87
}