; Function Attrs: null_pointer_is_valid sspstrong uwtable
define internal noundef i32 @dissect_sv_UtcTime(i1 zeroext %0, ptr noundef %1, i32 noundef %2, ptr noundef readonly captures(none) %3, ptr noundef %4, i32 noundef %5) #0 {
  %7 = alloca %struct.nstime_t, align 8
  call void @llvm.lifetime.start.p0(i64 16, ptr nonnull %7) #3
  %8 = tail call i32 @tvb_reported_length_remaining(ptr noundef %1, i32 noundef %2)
  %.not = icmp eq i32 %8, 8
  br i1 %.not, label %16, label %9

9:                                                ; preds = %6
  %10 = getelementptr inbounds nuw i8, ptr %3, i64 16
  %11 = load ptr, ptr %10, align 8
  %12 = tail call ptr (ptr, ptr, ptr, ptr, i32, i32, ptr, ...) @proto_tree_add_expert_format(ptr noundef %4, ptr noundef %11, ptr noundef nonnull @ei_sv_mal_utctime, ptr noundef %1, i32 noundef %2, i32 noundef %8, ptr noundef nonnull @.str.110)
  %13 = icmp sgt i32 %5, 0
  br i1 %13, label %14, label %37

14:                                               ; preds = %9
  %15 = tail call ptr @proto_tree_add_string(ptr noundef %4, i32 noundef %5, ptr noundef %1, i32 noundef %2, i32 noundef %8, ptr noundef nonnull @.str.111)
  br label %37

16:                                               ; preds = %6
  %17 = tail call i32 @tvb_get_ntohl(ptr noundef %1, i32 noundef %2)
  %18 = add i32 %2, 4
  %19 = tail call i32 @tvb_get_ntoh24(ptr noundef %1, i32 noundef %18)
  %20 = shl i32 %19, 8
  %21 = zext i32 %20 to i64
  %22 = mul nuw nsw i64 %21, 1000000000
  %23 = lshr i64 %22, 32
  %24 = trunc nuw nsw i64 %23 to i32
  %25 = zext i32 %17 to i64
  store i64 %25, ptr %7, align 8
  %26 = getelementptr inbounds nuw i8, ptr %7, i64 8
  store i32 %24, ptr %26, align 8
  %27 = getelementptr inbounds nuw i8, ptr %3, i64 16
  %28 = load ptr, ptr %27, align 8
  %29 = getelementptr inbounds nuw i8, ptr %28, i64 408
  %30 = load ptr, ptr %29, align 8
  %31 = call ptr @abs_time_to_str_ex(ptr noundef %30, ptr noundef nonnull %7, i32 noundef 19, i32 noundef 1)
  %32 = icmp sgt i32 %5, 0
  br i1 %32, label %33, label %35

33:                                               ; preds = %16
  %34 = call ptr @proto_tree_add_string(ptr noundef %4, i32 noundef %5, ptr noundef %1, i32 noundef %2, i32 noundef 8, ptr noundef %31)
  br label %35

35:                                               ; preds = %33, %16
  %36 = add i32 %2, 8
  br label %37

37:                                               ; preds = %9, %14, %35
  %.0 = phi i32 [ %36, %35 ], [ %2, %14 ], [ %2, %9 ]
  call void @llvm.lifetime.end.p0(i64 16, ptr nonnull %7) #3
  ret i32 %.0
}